; Function Attrs: mustprogress uwtable
define internal fastcc void @_ZSt11make_uniqueIN12_GLOBAL__N_123NugetReadBinaryProviderEJRNS0_23NugetBaseBinaryProviderENS0_11NuGetSourceEEENSt8__detail9_MakeUniqIT_E15__single_objectEDpOT0_(ptr dead_on_unwind noalias nocapture writable writeonly align 8 %0, ptr noundef nonnull align 8 dereferenceable(176) %1, ptr noundef nonnull align 8 dereferenceable(48) %2) unnamed_addr #0 personality ptr @__gxx_personality_v0 {
  %4 = alloca %"struct.(anonymous namespace)::NuGetSource", align 8
  %5 = tail call noalias noundef nonnull dereferenceable(232) ptr @_Znwm(i64 noundef 232) #28
  call void @llvm.memcpy.p0.p0.i64(ptr noundef nonnull align 8 dereferenceable(16) %4, ptr noundef nonnull align 8 dereferenceable(16) %2, i64 16, i1 false)
  %6 = getelementptr inbounds i8, ptr %4, i64 16
  %7 = getelementptr inbounds i8, ptr %2, i64 16
  call void @_ZNSt7__cxx1112basic_stringIcSt11char_traitsIcESaIcEEC1EOS4_(ptr noundef nonnull align 8 dereferenceable(32) %6, ptr noundef nonnull align 8 dereferenceable(32) %7) #24
  store ptr getelementptr inbounds ({ [7 x ptr] }, ptr @_ZTVN5vcpkg19IReadBinaryProviderE, i64 0, i32 0, i64 2), ptr %5, align 8
  %8 = getelementptr inbounds i8, ptr %5, i64 8
  invoke fastcc void @_ZN12_GLOBAL__N_123NugetBaseBinaryProviderC2ERKS0_(ptr noundef nonnull align 8 dereferenceable(176) %8, ptr noundef nonnull align 8 dereferenceable(176) %1)
          to label %9 unwind label %12

9:                                                ; preds = %3
  store ptr getelementptr inbounds ({ [7 x ptr] }, ptr @_ZTVN12_GLOBAL__N_123NugetReadBinaryProviderE, i64 0, i32 0, i64 2), ptr %5, align 8
  %10 = getelementptr inbounds i8, ptr %5, i64 184
  call void @llvm.memcpy.p0.p0.i64(ptr noundef nonnull align 8 dereferenceable(16) %10, ptr noundef nonnull align 8 dereferenceable(16) %4, i64 16, i1 false)
  %11 = getelementptr inbounds i8, ptr %5, i64 200
  call void @_ZNSt7__cxx1112basic_stringIcSt11char_traitsIcESaIcEEC1EOS4_(ptr noundef nonnull align 8 dereferenceable(32) %11, ptr noundef nonnull align 8 dereferenceable(32) %6) #24
  store ptr %5, ptr %0, align 8
  call void @_ZNSt7__cxx1112basic_stringIcSt11char_traitsIcESaIcEED1Ev(ptr noundef nonnull align 8 dereferenceable(32) %6) #24
  ret void

12:                                               ; preds = %3
  %13 = landingpad { ptr, i32 }
          cleanup
  call void @_ZNSt7__cxx1112basic_stringIcSt11char_traitsIcESaIcEED1Ev(ptr noundef nonnull align 8 dereferenceable(32) %6) #24
  call void @_ZdlPv(ptr noundef nonnull %5) #25
  resume { ptr, i32 } %13
}